; ModuleID = '20/254.c'
source_filename = "20/254.c"
target datalayout = "e-m:e-p270:32:32-p271:32:32-p272:64:64-i64:64-f80:128-n8:16:32:64-S128"
target triple = "x86_64-pc-linux-gnu"

@.str = private unnamed_addr constant [3 x i8] c"%c\00", align 1
@.str.1 = private unnamed_addr constant [3 x i8] c"%s\00", align 1
@.str.2 = private unnamed_addr constant [2 x i8] c"\0A\00", align 1

; Function Attrs: noinline nounwind uwtable
define dso_local i32 @main() #0 {
  %1 = alloca i32, align 4
  %2 = alloca i32, align 4
  %3 = alloca i32, align 4
  %4 = alloca i32, align 4
  %5 = alloca i32, align 4
  %6 = alloca i32, align 4
  %7 = alloca i32, align 4
  %8 = alloca i32, align 4
  %9 = alloca [14 x i8], align 1
  %10 = alloca [4 x i8], align 1
  %11 = alloca [14 x i8], align 1
  %12 = alloca i8, align 1
  store i32 0, i32* %1, align 4
  store i32 0, i32* %3, align 4
  br label %13

13:                                               ; preds = %153, %0
  %14 = bitcast [14 x i8]* %9 to i8*
  call void @llvm.memset.p0i8.i64(i8* align 1 %14, i8 0, i64 14, i1 false)
  %15 = bitcast [4 x i8]* %10 to i8*
  call void @llvm.memset.p0i8.i64(i8* align 1 %15, i8 0, i64 4, i1 false)
  %16 = bitcast [14 x i8]* %11 to i8*
  call void @llvm.memset.p0i8.i64(i8* align 1 %16, i8 0, i64 14, i1 false)
  store i32 0, i32* %5, align 4
  store i32 0, i32* %4, align 4
  store i32 0, i32* %6, align 4
  store i32 0, i32* %8, align 4
  store i32 0, i32* %7, align 4
  store i32 0, i32* %2, align 4
  %17 = getelementptr inbounds [14 x i8], [14 x i8]* %9, i64 0, i64 0
  %18 = call i32 (i8*, ...) bitcast (i32 (...)* @gets to i32 (i8*, ...)*)(i8* %17)
  %19 = getelementptr inbounds [14 x i8], [14 x i8]* %9, i64 0, i64 0
  %20 = load i8, i8* %19, align 1
  %21 = sext i8 %20 to i32
  %22 = icmp eq i32 %21, 0
  br i1 %22, label %23, label %24

23:                                               ; preds = %13
  br label %156

24:                                               ; preds = %13
  %25 = getelementptr inbounds [14 x i8], [14 x i8]* %9, i64 0, i64 0
  %26 = call i64 @strlen(i8* %25) #4
  %27 = trunc i64 %26 to i32
  store i32 %27, i32* %7, align 4
  br label %28

28:                                               ; preds = %35, %24
  %29 = load i32, i32* %4, align 4
  %30 = sext i32 %29 to i64
  %31 = getelementptr inbounds [14 x i8], [14 x i8]* %9, i64 0, i64 %30
  %32 = load i8, i8* %31, align 1
  %33 = sext i8 %32 to i32
  %34 = icmp ne i32 %33, 32
  br i1 %34, label %35, label %45

35:                                               ; preds = %28
  %36 = load i32, i32* %4, align 4
  %37 = sext i32 %36 to i64
  %38 = getelementptr inbounds [14 x i8], [14 x i8]* %9, i64 0, i64 %37
  %39 = load i8, i8* %38, align 1
  %40 = load i32, i32* %4, align 4
  %41 = sext i32 %40 to i64
  %42 = getelementptr inbounds [14 x i8], [14 x i8]* %11, i64 0, i64 %41
  store i8 %39, i8* %42, align 1
  %43 = load i32, i32* %4, align 4
  %44 = add nsw i32 %43, 1
  store i32 %44, i32* %4, align 4
  br label %28

45:                                               ; preds = %28
  %46 = getelementptr inbounds [14 x i8], [14 x i8]* %11, i64 0, i64 0
  %47 = call i64 @strlen(i8* %46) #4
  %48 = trunc i64 %47 to i32
  store i32 %48, i32* %2, align 4
  %49 = load i32, i32* %4, align 4
  %50 = add nsw i32 %49, 1
  store i32 %50, i32* %6, align 4
  br label %51

51:                                               ; preds = %60, %45
  %52 = load i32, i32* %6, align 4
  %53 = load i32, i32* %7, align 4
  %54 = icmp slt i32 %52, %53
  br i1 %54, label %55, label %58

55:                                               ; preds = %51
  %56 = load i32, i32* %8, align 4
  %57 = icmp slt i32 %56, 3
  br label %58

58:                                               ; preds = %55, %51
  %59 = phi i1 [ false, %51 ], [ %57, %55 ]
  br i1 %59, label %60, label %72

60:                                               ; preds = %58
  %61 = load i32, i32* %6, align 4
  %62 = sext i32 %61 to i64
  %63 = getelementptr inbounds [14 x i8], [14 x i8]* %9, i64 0, i64 %62
  %64 = load i8, i8* %63, align 1
  %65 = load i32, i32* %8, align 4
  %66 = sext i32 %65 to i64
  %67 = getelementptr inbounds [4 x i8], [4 x i8]* %10, i64 0, i64 %66
  store i8 %64, i8* %67, align 1
  %68 = load i32, i32* %6, align 4
  %69 = add nsw i32 %68, 1
  store i32 %69, i32* %6, align 4
  %70 = load i32, i32* %8, align 4
  %71 = add nsw i32 %70, 1
  store i32 %71, i32* %8, align 4
  br label %51

72:                                               ; preds = %58
  %73 = getelementptr inbounds [14 x i8], [14 x i8]* %11, i64 0, i64 0
  %74 = load i8, i8* %73, align 1
  store i8 %74, i8* %12, align 1
  store i32 1, i32* %4, align 4
  br label %75

75:                                               ; preds = %94, %72
  %76 = load i32, i32* %4, align 4
  %77 = load i32, i32* %2, align 4
  %78 = icmp slt i32 %76, %77
  br i1 %78, label %79, label %97

79:                                               ; preds = %75
  %80 = load i8, i8* %12, align 1
  %81 = sext i8 %80 to i32
  %82 = load i32, i32* %4, align 4
  %83 = sext i32 %82 to i64
  %84 = getelementptr inbounds [14 x i8], [14 x i8]* %11, i64 0, i64 %83
  %85 = load i8, i8* %84, align 1
  %86 = sext i8 %85 to i32
  %87 = icmp slt i32 %81, %86
  br i1 %87, label %88, label %93

88:                                               ; preds = %79
  %89 = load i32, i32* %4, align 4
  %90 = sext i32 %89 to i64
  %91 = getelementptr inbounds [14 x i8], [14 x i8]* %11, i64 0, i64 %90
  %92 = load i8, i8* %91, align 1
  store i8 %92, i8* %12, align 1
  br label %93

93:                                               ; preds = %88, %79
  br label %94

94:                                               ; preds = %93
  %95 = load i32, i32* %4, align 4
  %96 = add nsw i32 %95, 1
  store i32 %96, i32* %4, align 4
  br label %75

97:                                               ; preds = %75
  store i32 0, i32* %4, align 4
  br label %98

98:                                               ; preds = %115, %97
  %99 = load i32, i32* %4, align 4
  %100 = load i32, i32* %2, align 4
  %101 = icmp slt i32 %99, %100
  br i1 %101, label %102, label %118

102:                                              ; preds = %98
  %103 = load i32, i32* %4, align 4
  %104 = sext i32 %103 to i64
  %105 = getelementptr inbounds [14 x i8], [14 x i8]* %11, i64 0, i64 %104
  %106 = load i8, i8* %105, align 1
  %107 = sext i8 %106 to i32
  %108 = load i8, i8* %12, align 1
  %109 = sext i8 %108 to i32
  %110 = icmp eq i32 %107, %109
  br i1 %110, label %111, label %114

111:                                              ; preds = %102
  %112 = load i32, i32* %4, align 4
  %113 = add nsw i32 %112, 1
  store i32 %113, i32* %5, align 4
  br label %118

114:                                              ; preds = %102
  br label %115

115:                                              ; preds = %114
  %116 = load i32, i32* %4, align 4
  %117 = add nsw i32 %116, 1
  store i32 %117, i32* %4, align 4
  br label %98

118:                                              ; preds = %111, %98
  store i32 0, i32* %4, align 4
  br label %119

119:                                              ; preds = %130, %118
  %120 = load i32, i32* %4, align 4
  %121 = load i32, i32* %5, align 4
  %122 = icmp slt i32 %120, %121
  br i1 %122, label %123, label %133

123:                                              ; preds = %119
  %124 = load i32, i32* %4, align 4
  %125 = sext i32 %124 to i64
  %126 = getelementptr inbounds [14 x i8], [14 x i8]* %11, i64 0, i64 %125
  %127 = load i8, i8* %126, align 1
  %128 = sext i8 %127 to i32
  %129 = call i32 (i8*, ...) @printf(i8* getelementptr inbounds ([3 x i8], [3 x i8]* @.str, i64 0, i64 0), i32 %128)
  br label %130

130:                                              ; preds = %123
  %131 = load i32, i32* %4, align 4
  %132 = add nsw i32 %131, 1
  store i32 %132, i32* %4, align 4
  br label %119

133:                                              ; preds = %119
  %134 = getelementptr inbounds [4 x i8], [4 x i8]* %10, i64 0, i64 0
  %135 = call i32 (i8*, ...) @printf(i8* getelementptr inbounds ([3 x i8], [3 x i8]* @.str.1, i64 0, i64 0), i8* %134)
  %136 = load i32, i32* %5, align 4
  store i32 %136, i32* %4, align 4
  br label %137

137:                                              ; preds = %148, %133
  %138 = load i32, i32* %4, align 4
  %139 = load i32, i32* %2, align 4
  %140 = icmp slt i32 %138, %139
  br i1 %140, label %141, label %151

141:                                              ; preds = %137
  %142 = load i32, i32* %4, align 4
  %143 = sext i32 %142 to i64
  %144 = getelementptr inbounds [14 x i8], [14 x i8]* %11, i64 0, i64 %143
  %145 = load i8, i8* %144, align 1
  %146 = sext i8 %145 to i32
  %147 = call i32 (i8*, ...) @printf(i8* getelementptr inbounds ([3 x i8], [3 x i8]* @.str, i64 0, i64 0), i32 %146)
  br label %148

148:                                              ; preds = %141
  %149 = load i32, i32* %4, align 4
  %150 = add nsw i32 %149, 1
  store i32 %150, i32* %4, align 4
  br label %137

151:                                              ; preds = %137
  %152 = call i32 (i8*, ...) @printf(i8* getelementptr inbounds ([2 x i8], [2 x i8]* @.str.2, i64 0, i64 0))
  br label %153

153:                                              ; preds = %151
  %154 = load i32, i32* %3, align 4
  %155 = add nsw i32 %154, 1
  store i32 %155, i32* %3, align 4
  br label %13

156:                                              ; preds = %23
  %157 = load i32, i32* %1, align 4
  ret i32 %157
}

; Function Attrs: argmemonly nounwind willreturn
declare void @llvm.memset.p0i8.i64(i8* nocapture writeonly, i8, i64, i1 immarg) #1

declare dso_local i32 @gets(...) #2

; Function Attrs: nounwind readonly
declare dso_local i64 @strlen(i8*) #3

declare dso_local i32 @printf(i8*, ...) #2


!llvm.module.flags = !{!0}
!llvm.ident = !{!1}

!0 = !{i32 1, !"wchar_size", i32 4}
!1 = !{!"clang version 10.0.0-4ubuntu1 "}
